; Function Attrs: mustprogress uwtable
define dso_local noundef nonnull align 8 dereferenceable(8) ptr @_ZlsRSoRK10cmLinkItem(ptr noundef nonnull align 8 dereferenceable(8) %0, ptr noundef nonnull readonly align 8 captures(none) dereferenceable(104) %1) local_unnamed_addr #6 {
  %3 = getelementptr inbounds nuw i8, ptr %1, i64 32
  %4 = load ptr, ptr %3, align 8, !tbaa !29
  %.not.i = icmp eq ptr %4, null
  br i1 %.not.i, label %_ZNK10cmLinkItem5AsStrB5cxx11Ev.exit, label %5

5:                                                ; preds = %2
  %6 = tail call noundef nonnull align 8 dereferenceable(32) ptr @_ZNK17cmGeneratorTarget7GetNameB5cxx11Ev(ptr noundef nonnull align 8 dereferenceable(2912) %4)
  br label %_ZNK10cmLinkItem5AsStrB5cxx11Ev.exit

_ZNK10cmLinkItem5AsStrB5cxx11Ev.exit:             ; preds = %2, %5
  %7 = phi ptr [ %6, %5 ], [ %1, %2 ]
  %8 = load ptr, ptr %7, align 8, !tbaa !10
  %9 = getelementptr inbounds nuw i8, ptr %7, i64 8
  %10 = load i64, ptr %9, align 8, !tbaa !13
  %11 = tail call noundef nonnull align 8 dereferenceable(8) ptr @_ZSt16__ostream_insertIcSt11char_traitsIcEERSt13basic_ostreamIT_T0_ES6_PKS3_l(ptr noundef nonnull align 8 dereferenceable(8) %0, ptr noundef %8, i64 noundef %10)
  ret ptr %11
}